target datalayout = "e-m:e-p270:32:32-p271:32:32-p272:64:64-i64:64-i128:128-f80:128-n8:16:32:64-S128"
target triple = "x86_64-pc-linux-gnu"

; Function Attrs: nounwind uwtable
define i32 @pmix_bfrops_base_copy_resunit(ptr noundef %0, ptr noundef %1, i16 noundef zeroext %2) #0 {
  %4 = alloca i32, align 4
  %5 = alloca ptr, align 8
  %6 = alloca ptr, align 8
  %7 = alloca i16, align 2
  %8 = alloca ptr, align 8
  %9 = alloca i32, align 4
  store ptr %0, ptr %5, align 8, !tbaa !218
  store ptr %1, ptr %6, align 8, !tbaa !178
  store i16 %2, ptr %7, align 2, !tbaa !9
  call void @llvm.lifetime.start.p0(i64 8, ptr %8) #11
  %10 = call ptr @PMIx_Resource_unit_create(i64 noundef 1)
  store ptr %10, ptr %8, align 8, !tbaa !178
  %11 = load ptr, ptr %8, align 8, !tbaa !178
  %12 = icmp eq ptr null, %11
  br i1 %12, label %13, label %14

13:                                               ; preds = %3
  store i32 -32, ptr %4, align 4
  store i32 1, ptr %9, align 4
  br label %19

14:                                               ; preds = %3
  %15 = load ptr, ptr %8, align 8, !tbaa !178
  %16 = load ptr, ptr %6, align 8, !tbaa !178
  call void @llvm.memcpy.p0.p0.i64(ptr align 8 %15, ptr align 8 %16, i64 16, i1 false)
  %17 = load ptr, ptr %8, align 8, !tbaa !178
  %18 = load ptr, ptr %5, align 8, !tbaa !218
  store ptr %17, ptr %18, align 8, !tbaa !178
  store i32 0, ptr %4, align 4
  store i32 1, ptr %9, align 4
  br label %19

19:                                               ; preds = %14, %13
  call void @llvm.lifetime.end.p0(i64 8, ptr %8) #11
  %20 = load i32, ptr %4, align 4
  ret i32 %20
}