; Function Attrs: nounwind uwtable
define range(i32 -32, 1) i32 @pmix_bfrops_base_copy_resunit(ptr noundef writeonly captures(none) %0, ptr noundef readonly captures(none) %1, i16 noundef zeroext %2) local_unnamed_addr #0 {
  %4 = tail call ptr @PMIx_Resource_unit_create(i64 noundef 1) #23
  %5 = icmp eq ptr %4, null
  br i1 %5, label %7, label %6

6:                                                ; preds = %3
  tail call void @llvm.memcpy.p0.p0.i64(ptr noundef nonnull align 8 dereferenceable(16) %4, ptr noundef nonnull align 8 dereferenceable(16) %1, i64 16, i1 false)
  store ptr %4, ptr %0, align 8, !tbaa !222
  br label %7

7:                                                ; preds = %3, %6
  %.0 = phi i32 [ 0, %6 ], [ -32, %3 ]
  ret i32 %.0
}